; ModuleID = '13/1414.c'
source_filename = "13/1414.c"
target datalayout = "e-m:e-p270:32:32-p271:32:32-p272:64:64-i64:64-f80:128-n8:16:32:64-S128"
target triple = "x86_64-pc-linux-gnu"

@.str = private unnamed_addr constant [3 x i8] c"%d\00", align 1
@.str.1 = private unnamed_addr constant [4 x i8] c" %d\00", align 1

; Function Attrs: noinline nounwind uwtable
define dso_local void @main() #0 {
  %1 = alloca i32, align 4
  %2 = alloca i32, align 4
  %3 = alloca [20000 x i32], align 16
  %4 = alloca i32, align 4
  %5 = alloca i32, align 4
  %6 = alloca i32, align 4
  %7 = call i32 (i8*, ...) @__isoc99_scanf(i8* getelementptr inbounds ([3 x i8], [3 x i8]* @.str, i64 0, i64 0), i32* %1)
  %8 = load i32, i32* %1, align 4
  %9 = icmp sge i32 %8, 1
  br i1 %9, label %10, label %110

10:                                               ; preds = %0
  %11 = load i32, i32* %1, align 4
  %12 = icmp sle i32 %11, 20000
  br i1 %12, label %13, label %110

13:                                               ; preds = %10
  %14 = getelementptr inbounds [20000 x i32], [20000 x i32]* %3, i64 0, i64 0
  %15 = call i32 (i8*, ...) @__isoc99_scanf(i8* getelementptr inbounds ([3 x i8], [3 x i8]* @.str, i64 0, i64 0), i32* %14)
  store i32 1, i32* %4, align 4
  br label %16

16:                                               ; preds = %25, %13
  %17 = load i32, i32* %4, align 4
  %18 = load i32, i32* %1, align 4
  %19 = icmp slt i32 %17, %18
  br i1 %19, label %20, label %28

20:                                               ; preds = %16
  %21 = load i32, i32* %4, align 4
  %22 = sext i32 %21 to i64
  %23 = getelementptr inbounds [20000 x i32], [20000 x i32]* %3, i64 0, i64 %22
  %24 = call i32 (i8*, ...) @__isoc99_scanf(i8* getelementptr inbounds ([4 x i8], [4 x i8]* @.str.1, i64 0, i64 0), i32* %23)
  br label %25

25:                                               ; preds = %20
  %26 = load i32, i32* %4, align 4
  %27 = add nsw i32 %26, 1
  store i32 %27, i32* %4, align 4
  br label %16

28:                                               ; preds = %16
  store i32 0, i32* %4, align 4
  store i32 0, i32* %2, align 4
  br label %29

29:                                               ; preds = %87, %28
  %30 = load i32, i32* %4, align 4
  %31 = load i32, i32* %1, align 4
  %32 = load i32, i32* %2, align 4
  %33 = sub nsw i32 %31, %32
  %34 = sub nsw i32 %33, 1
  %35 = icmp slt i32 %30, %34
  br i1 %35, label %36, label %90

36:                                               ; preds = %29
  %37 = load i32, i32* %4, align 4
  %38 = add nsw i32 %37, 1
  store i32 %38, i32* %5, align 4
  br label %39

39:                                               ; preds = %83, %36
  %40 = load i32, i32* %5, align 4
  %41 = load i32, i32* %1, align 4
  %42 = load i32, i32* %2, align 4
  %43 = sub nsw i32 %41, %42
  %44 = icmp slt i32 %40, %43
  br i1 %44, label %45, label %86

45:                                               ; preds = %39
  %46 = load i32, i32* %4, align 4
  %47 = sext i32 %46 to i64
  %48 = getelementptr inbounds [20000 x i32], [20000 x i32]* %3, i64 0, i64 %47
  %49 = load i32, i32* %48, align 4
  %50 = load i32, i32* %5, align 4
  %51 = sext i32 %50 to i64
  %52 = getelementptr inbounds [20000 x i32], [20000 x i32]* %3, i64 0, i64 %51
  %53 = load i32, i32* %52, align 4
  %54 = icmp ne i32 %49, %53
  br i1 %54, label %55, label %56

55:                                               ; preds = %45
  br label %83

56:                                               ; preds = %45
  %57 = load i32, i32* %5, align 4
  store i32 %57, i32* %6, align 4
  br label %58

58:                                               ; preds = %74, %56
  %59 = load i32, i32* %6, align 4
  %60 = load i32, i32* %1, align 4
  %61 = load i32, i32* %2, align 4
  %62 = sub nsw i32 %60, %61
  %63 = sub nsw i32 %62, 1
  %64 = icmp slt i32 %59, %63
  br i1 %64, label %65, label %77

65:                                               ; preds = %58
  %66 = load i32, i32* %6, align 4
  %67 = add nsw i32 %66, 1
  %68 = sext i32 %67 to i64
  %69 = getelementptr inbounds [20000 x i32], [20000 x i32]* %3, i64 0, i64 %68
  %70 = load i32, i32* %69, align 4
  %71 = load i32, i32* %6, align 4
  %72 = sext i32 %71 to i64
  %73 = getelementptr inbounds [20000 x i32], [20000 x i32]* %3, i64 0, i64 %72
  store i32 %70, i32* %73, align 4
  br label %74

74:                                               ; preds = %65
  %75 = load i32, i32* %6, align 4
  %76 = add nsw i32 %75, 1
  store i32 %76, i32* %6, align 4
  br label %58

77:                                               ; preds = %58
  %78 = load i32, i32* %2, align 4
  %79 = add nsw i32 %78, 1
  store i32 %79, i32* %2, align 4
  %80 = load i32, i32* %5, align 4
  %81 = add nsw i32 %80, -1
  store i32 %81, i32* %5, align 4
  br label %82

82:                                               ; preds = %77
  br label %83

83:                                               ; preds = %82, %55
  %84 = load i32, i32* %5, align 4
  %85 = add nsw i32 %84, 1
  store i32 %85, i32* %5, align 4
  br label %39

86:                                               ; preds = %39
  br label %87

87:                                               ; preds = %86
  %88 = load i32, i32* %4, align 4
  %89 = add nsw i32 %88, 1
  store i32 %89, i32* %4, align 4
  br label %29

90:                                               ; preds = %29
  %91 = getelementptr inbounds [20000 x i32], [20000 x i32]* %3, i64 0, i64 0
  %92 = load i32, i32* %91, align 16
  %93 = call i32 (i8*, ...) @printf(i8* getelementptr inbounds ([3 x i8], [3 x i8]* @.str, i64 0, i64 0), i32 %92)
  store i32 1, i32* %4, align 4
  br label %94

94:                                               ; preds = %106, %90
  %95 = load i32, i32* %4, align 4
  %96 = load i32, i32* %1, align 4
  %97 = load i32, i32* %2, align 4
  %98 = sub nsw i32 %96, %97
  %99 = icmp slt i32 %95, %98
  br i1 %99, label %100, label %109

100:                                              ; preds = %94
  %101 = load i32, i32* %4, align 4
  %102 = sext i32 %101 to i64
  %103 = getelementptr inbounds [20000 x i32], [20000 x i32]* %3, i64 0, i64 %102
  %104 = load i32, i32* %103, align 4
  %105 = call i32 (i8*, ...) @printf(i8* getelementptr inbounds ([4 x i8], [4 x i8]* @.str.1, i64 0, i64 0), i32 %104)
  br label %106

106:                                              ; preds = %100
  %107 = load i32, i32* %4, align 4
  %108 = add nsw i32 %107, 1
  store i32 %108, i32* %4, align 4
  br label %94

109:                                              ; preds = %94
  br label %110

110:                                              ; preds = %109, %10, %0
  ret void
}

declare dso_local i32 @__isoc99_scanf(i8*, ...) #1

declare dso_local i32 @printf(i8*, ...) #1


!llvm.module.flags = !{!0}
!llvm.ident = !{!1}

!0 = !{i32 1, !"wchar_size", i32 4}
!1 = !{!"clang version 10.0.0-4ubuntu1 "}
